target datalayout = "e-m:e-p270:32:32-p271:32:32-p272:64:64-i64:64-i128:128-f80:128-n8:16:32:64-S128"
target triple = "x86_64-pc-linux-gnu"

%struct.MvcCubeStruct = type { ptr, i32, i32, [1 x i32] }
%struct.MvcCoverStruct = type { i32, i32, i32, %struct.MvcListStruct, ptr, i32, ptr, ptr, ptr }
%struct.MvcListStruct = type { ptr, ptr, i32 }

; Function Attrs: nounwind uwtable
define ptr @Mvc_CoverTranspose(ptr noundef %0) #0 {
  %2 = alloca ptr, align 8
  %3 = alloca ptr, align 8
  %4 = alloca ptr, align 8
  %5 = alloca ptr, align 8
  %6 = alloca i32, align 4
  %7 = alloca i32, align 4
  %8 = alloca i32, align 4
  %9 = alloca i32, align 4
  %10 = alloca i32, align 4
  %11 = alloca ptr, align 8
  store ptr %0, ptr %2, align 8, !tbaa !3
  call void @llvm.lifetime.start.p0(i64 8, ptr %3) #3
  call void @llvm.lifetime.start.p0(i64 8, ptr %4) #3
  call void @llvm.lifetime.start.p0(i64 8, ptr %5) #3
  call void @llvm.lifetime.start.p0(i64 4, ptr %6) #3
  call void @llvm.lifetime.start.p0(i64 4, ptr %7) #3
  call void @llvm.lifetime.start.p0(i64 4, ptr %8) #3
  call void @llvm.lifetime.start.p0(i64 4, ptr %9) #3
  %12 = load ptr, ptr %2, align 8, !tbaa !3
  %13 = getelementptr inbounds nuw %struct.MvcCoverStruct, ptr %12, i32 0, i32 8
  %14 = load ptr, ptr %13, align 8, !tbaa !54
  %15 = load ptr, ptr %2, align 8, !tbaa !3
  %16 = call i32 @Mvc_CoverReadCubeNum(ptr noundef %15)
  %17 = call ptr @Mvc_CoverAlloc(ptr noundef %14, i32 noundef %16)
  store ptr %17, ptr %3, align 8, !tbaa !3
  store i32 0, ptr %8, align 4, !tbaa !10
  br label %18

18:                                               ; preds = %137, %1
  %19 = load i32, ptr %8, align 4, !tbaa !10
  %20 = load ptr, ptr %2, align 8, !tbaa !3
  %21 = getelementptr inbounds nuw %struct.MvcCoverStruct, ptr %20, i32 0, i32 2
  %22 = load i32, ptr %21, align 8, !tbaa !27
  %23 = icmp slt i32 %19, %22
  br i1 %23, label %24, label %140

24:                                               ; preds = %18
  %25 = load i32, ptr %8, align 4, !tbaa !10
  %26 = ashr i32 %25, 5
  store i32 %26, ptr %6, align 4, !tbaa !10
  %27 = load i32, ptr %8, align 4, !tbaa !10
  %28 = and i32 %27, 31
  store i32 %28, ptr %7, align 4, !tbaa !10
  %29 = load ptr, ptr %3, align 8, !tbaa !3
  %30 = call ptr @Mvc_CubeAlloc(ptr noundef %29)
  store ptr %30, ptr %4, align 8, !tbaa !8
  %31 = load ptr, ptr %4, align 8, !tbaa !8
  %32 = getelementptr inbounds nuw %struct.MvcCubeStruct, ptr %31, i32 0, i32 1
  %33 = load i32, ptr %32, align 8
  %34 = and i32 %33, 16777215
  %35 = icmp eq i32 %34, 0
  br i1 %35, label %36, label %40

36:                                               ; preds = %24
  %37 = load ptr, ptr %4, align 8, !tbaa !8
  %38 = getelementptr inbounds nuw %struct.MvcCubeStruct, ptr %37, i32 0, i32 3
  %39 = getelementptr inbounds [1 x i32], ptr %38, i64 0, i64 0
  store i32 0, ptr %39, align 8, !tbaa !10
  br label %72

40:                                               ; preds = %24
  %41 = load ptr, ptr %4, align 8, !tbaa !8
  %42 = getelementptr inbounds nuw %struct.MvcCubeStruct, ptr %41, i32 0, i32 1
  %43 = load i32, ptr %42, align 8
  %44 = and i32 %43, 16777215
  %45 = icmp eq i32 %44, 1
  br i1 %45, label %46, label %53

46:                                               ; preds = %40
  %47 = load ptr, ptr %4, align 8, !tbaa !8
  %48 = getelementptr inbounds nuw %struct.MvcCubeStruct, ptr %47, i32 0, i32 3
  %49 = getelementptr inbounds [1 x i32], ptr %48, i64 0, i64 0
  store i32 0, ptr %49, align 8, !tbaa !10
  %50 = load ptr, ptr %4, align 8, !tbaa !8
  %51 = getelementptr inbounds nuw %struct.MvcCubeStruct, ptr %50, i32 0, i32 3
  %52 = getelementptr inbounds [1 x i32], ptr %51, i64 0, i64 1
  store i32 0, ptr %52, align 4, !tbaa !10
  br label %71

53:                                               ; preds = %40
  call void @llvm.lifetime.start.p0(i64 4, ptr %10) #3
  %54 = load ptr, ptr %4, align 8, !tbaa !8
  %55 = getelementptr inbounds nuw %struct.MvcCubeStruct, ptr %54, i32 0, i32 1
  %56 = load i32, ptr %55, align 8
  %57 = and i32 %56, 16777215
  store i32 %57, ptr %10, align 4, !tbaa !10
  br label %58

58:                                               ; preds = %67, %53
  %59 = load i32, ptr %10, align 4, !tbaa !10
  %60 = icmp sge i32 %59, 0
  br i1 %60, label %61, label %70

61:                                               ; preds = %58
  %62 = load ptr, ptr %4, align 8, !tbaa !8
  %63 = getelementptr inbounds nuw %struct.MvcCubeStruct, ptr %62, i32 0, i32 3
  %64 = load i32, ptr %10, align 4, !tbaa !10
  %65 = sext i32 %64 to i64
  %66 = getelementptr inbounds [1 x i32], ptr %63, i64 0, i64 %65
  store i32 0, ptr %66, align 4, !tbaa !10
  br label %67

67:                                               ; preds = %61
  %68 = load i32, ptr %10, align 4, !tbaa !10
  %69 = add nsw i32 %68, -1
  store i32 %69, ptr %10, align 4, !tbaa !10
  br label %58, !llvm.loop !65

70:                                               ; preds = %58
  call void @llvm.lifetime.end.p0(i64 4, ptr %10) #3
  br label %71

71:                                               ; preds = %70, %46
  br label %72

72:                                               ; preds = %71, %36
  store i32 0, ptr %9, align 4, !tbaa !10
  %73 = load ptr, ptr %2, align 8, !tbaa !3
  %74 = getelementptr inbounds nuw %struct.MvcCoverStruct, ptr %73, i32 0, i32 3
  %75 = getelementptr inbounds nuw %struct.MvcListStruct, ptr %74, i32 0, i32 0
  %76 = load ptr, ptr %75, align 8, !tbaa !14
  store ptr %76, ptr %5, align 8, !tbaa !8
  br label %77

77:                                               ; preds = %106, %72
  %78 = load ptr, ptr %5, align 8, !tbaa !8
  %79 = icmp ne ptr %78, null
  br i1 %79, label %80, label %110

80:                                               ; preds = %77
  %81 = load ptr, ptr %5, align 8, !tbaa !8
  %82 = getelementptr inbounds nuw %struct.MvcCubeStruct, ptr %81, i32 0, i32 3
  %83 = load i32, ptr %6, align 4, !tbaa !10
  %84 = sext i32 %83 to i64
  %85 = getelementptr inbounds [1 x i32], ptr %82, i64 0, i64 %84
  %86 = load i32, ptr %85, align 4, !tbaa !10
  %87 = load i32, ptr %7, align 4, !tbaa !10
  %88 = shl i32 1, %87
  %89 = and i32 %86, %88
  %90 = icmp ne i32 %89, 0
  br i1 %90, label %91, label %103

91:                                               ; preds = %80
  %92 = load i32, ptr %9, align 4, !tbaa !10
  %93 = and i32 %92, 31
  %94 = shl i32 1, %93
  %95 = load ptr, ptr %4, align 8, !tbaa !8
  %96 = getelementptr inbounds nuw %struct.MvcCubeStruct, ptr %95, i32 0, i32 3
  %97 = load i32, ptr %9, align 4, !tbaa !10
  %98 = ashr i32 %97, 5
  %99 = sext i32 %98 to i64
  %100 = getelementptr inbounds [1 x i32], ptr %96, i64 0, i64 %99
  %101 = load i32, ptr %100, align 4, !tbaa !10
  %102 = or i32 %101, %94
  store i32 %102, ptr %100, align 4, !tbaa !10
  br label %103

103:                                              ; preds = %91, %80
  %104 = load i32, ptr %9, align 4, !tbaa !10
  %105 = add nsw i32 %104, 1
  store i32 %105, ptr %9, align 4, !tbaa !10
  br label %106

106:                                              ; preds = %103
  %107 = load ptr, ptr %5, align 8, !tbaa !8
  %108 = getelementptr inbounds nuw %struct.MvcCubeStruct, ptr %107, i32 0, i32 0
  %109 = load ptr, ptr %108, align 8, !tbaa !21
  store ptr %109, ptr %5, align 8, !tbaa !8
  br label %77, !llvm.loop !66

110:                                              ; preds = %77
  call void @llvm.lifetime.start.p0(i64 8, ptr %11) #3
  %111 = load ptr, ptr %3, align 8, !tbaa !3
  %112 = getelementptr inbounds nuw %struct.MvcCoverStruct, ptr %111, i32 0, i32 3
  store ptr %112, ptr %11, align 8, !tbaa !36
  %113 = load ptr, ptr %11, align 8, !tbaa !36
  %114 = getelementptr inbounds nuw %struct.MvcListStruct, ptr %113, i32 0, i32 0
  %115 = load ptr, ptr %114, align 8, !tbaa !38
  %116 = icmp eq ptr %115, null
  br i1 %116, label %117, label %121

117:                                              ; preds = %110
  %118 = load ptr, ptr %4, align 8, !tbaa !8
  %119 = load ptr, ptr %11, align 8, !tbaa !36
  %120 = getelementptr inbounds nuw %struct.MvcListStruct, ptr %119, i32 0, i32 0
  store ptr %118, ptr %120, align 8, !tbaa !38
  br label %127

121:                                              ; preds = %110
  %122 = load ptr, ptr %4, align 8, !tbaa !8
  %123 = load ptr, ptr %11, align 8, !tbaa !36
  %124 = getelementptr inbounds nuw %struct.MvcListStruct, ptr %123, i32 0, i32 1
  %125 = load ptr, ptr %124, align 8, !tbaa !39
  %126 = getelementptr inbounds nuw %struct.MvcCubeStruct, ptr %125, i32 0, i32 0
  store ptr %122, ptr %126, align 8, !tbaa !21
  br label %127

127:                                              ; preds = %121, %117
  %128 = load ptr, ptr %4, align 8, !tbaa !8
  %129 = load ptr, ptr %11, align 8, !tbaa !36
  %130 = getelementptr inbounds nuw %struct.MvcListStruct, ptr %129, i32 0, i32 1
  store ptr %128, ptr %130, align 8, !tbaa !39
  %131 = load ptr, ptr %4, align 8, !tbaa !8
  %132 = getelementptr inbounds nuw %struct.MvcCubeStruct, ptr %131, i32 0, i32 0
  store ptr null, ptr %132, align 8, !tbaa !21
  %133 = load ptr, ptr %11, align 8, !tbaa !36
  %134 = getelementptr inbounds nuw %struct.MvcListStruct, ptr %133, i32 0, i32 2
  %135 = load i32, ptr %134, align 8, !tbaa !40
  %136 = add nsw i32 %135, 1
  store i32 %136, ptr %134, align 8, !tbaa !40
  call void @llvm.lifetime.end.p0(i64 8, ptr %11) #3
  br label %137

137:                                              ; preds = %127
  %138 = load i32, ptr %8, align 4, !tbaa !10
  %139 = add nsw i32 %138, 1
  store i32 %139, ptr %8, align 4, !tbaa !10
  br label %18, !llvm.loop !67

140:                                              ; preds = %18
  %141 = load ptr, ptr %3, align 8, !tbaa !3
  call void @llvm.lifetime.end.p0(i64 4, ptr %9) #3
  call void @llvm.lifetime.end.p0(i64 4, ptr %8) #3
  call void @llvm.lifetime.end.p0(i64 4, ptr %7) #3
  call void @llvm.lifetime.end.p0(i64 4, ptr %6) #3
  call void @llvm.lifetime.end.p0(i64 8, ptr %5) #3
  call void @llvm.lifetime.end.p0(i64 8, ptr %4) #3
  call void @llvm.lifetime.end.p0(i64 8, ptr %3) #3
  ret ptr %141
}