; Function Attrs: nounwind uwtable
define ptr @Mvc_CoverTranspose(ptr noundef %0) local_unnamed_addr #1 {
  %2 = getelementptr inbounds nuw i8, ptr %0, i64 72
  %3 = load ptr, ptr %2, align 8, !tbaa !43
  %4 = tail call i32 @Mvc_CoverReadCubeNum(ptr noundef %0) #6
  %5 = tail call ptr @Mvc_CoverAlloc(ptr noundef %3, i32 noundef %4) #6
  %6 = getelementptr inbounds nuw i8, ptr %0, i64 8
  %7 = load i32, ptr %6, align 8, !tbaa !15
  %8 = icmp sgt i32 %7, 0
  br i1 %8, label %.lr.ph50, label %._crit_edge51

.lr.ph50:                                         ; preds = %1
  %9 = getelementptr inbounds nuw i8, ptr %0, i64 16
  %10 = getelementptr inbounds nuw i8, ptr %5, i64 16
  %11 = getelementptr inbounds nuw i8, ptr %5, i64 24
  %12 = getelementptr inbounds nuw i8, ptr %5, i64 32
  br label %13

13:                                               ; preds = %.lr.ph50, %50
  %.04048 = phi i32 [ 0, %.lr.ph50 ], [ %53, %50 ]
  %14 = lshr i32 %.04048, 5
  %15 = and i32 %.04048, 31
  %16 = tail call ptr @Mvc_CubeAlloc(ptr noundef %5) #6
  %17 = getelementptr inbounds nuw i8, ptr %16, i64 8
  %18 = load i32, ptr %17, align 8
  %19 = and i32 %18, 16777215
  %20 = getelementptr inbounds nuw i8, ptr %16, i64 16
  switch i32 %19, label %.preheader [
    i32 0, label %24
    i32 1, label %25
  ]

.preheader:                                       ; preds = %13
  %21 = shl i32 %18, 2
  %22 = and i32 %21, 67108860
  %narrow = add nuw nsw i32 %22, 4
  %23 = zext nneg i32 %narrow to i64
  tail call void @llvm.memset.p0.i64(ptr noundef nonnull align 4 dereferenceable(1) %20, i8 0, i64 %23, i1 false), !tbaa !3
  br label %.loopexit

24:                                               ; preds = %13
  store i32 0, ptr %20, align 8, !tbaa !3
  br label %.loopexit

25:                                               ; preds = %13
  store i32 0, ptr %20, align 8, !tbaa !3
  %26 = getelementptr inbounds nuw i8, ptr %16, i64 20
  store i32 0, ptr %26, align 4, !tbaa !3
  br label %.loopexit

.loopexit:                                        ; preds = %.preheader, %25, %24
  %.044 = load ptr, ptr %9, align 8, !tbaa !7
  %.not45 = icmp eq ptr %.044, null
  br i1 %.not45, label %._crit_edge, label %.lr.ph

.lr.ph:                                           ; preds = %.loopexit
  %27 = zext nneg i32 %14 to i64
  %28 = shl nuw i32 1, %15
  %29 = getelementptr inbounds nuw i8, ptr %16, i64 16
  br label %30

30:                                               ; preds = %.lr.ph, %43
  %.047 = phi ptr [ %.044, %.lr.ph ], [ %.0, %43 ]
  %.03946 = phi i32 [ 0, %.lr.ph ], [ %44, %43 ]
  %31 = getelementptr inbounds nuw i8, ptr %.047, i64 16
  %32 = getelementptr inbounds nuw [1 x i32], ptr %31, i64 0, i64 %27
  %33 = load i32, ptr %32, align 4, !tbaa !3
  %34 = and i32 %33, %28
  %.not42 = icmp eq i32 %34, 0
  br i1 %.not42, label %43, label %35

35:                                               ; preds = %30
  %36 = and i32 %.03946, 31
  %37 = shl nuw i32 1, %36
  %38 = lshr i32 %.03946, 5
  %39 = zext nneg i32 %38 to i64
  %40 = getelementptr inbounds nuw [1 x i32], ptr %29, i64 0, i64 %39
  %41 = load i32, ptr %40, align 4, !tbaa !3
  %42 = or i32 %41, %37
  store i32 %42, ptr %40, align 4, !tbaa !3
  br label %43

43:                                               ; preds = %35, %30
  %44 = add nuw nsw i32 %.03946, 1
  %.0 = load ptr, ptr %.047, align 8, !tbaa !7
  %.not = icmp eq ptr %.0, null
  br i1 %.not, label %._crit_edge, label %30, !llvm.loop !53

._crit_edge:                                      ; preds = %43, %.loopexit
  %45 = load ptr, ptr %10, align 8, !tbaa !28
  %46 = icmp eq ptr %45, null
  br i1 %46, label %47, label %48

47:                                               ; preds = %._crit_edge
  store ptr %16, ptr %10, align 8, !tbaa !28
  br label %50

48:                                               ; preds = %._crit_edge
  %49 = load ptr, ptr %11, align 8, !tbaa !29
  store ptr %16, ptr %49, align 8, !tbaa !30
  br label %50

50:                                               ; preds = %48, %47
  store ptr %16, ptr %11, align 8, !tbaa !29
  store ptr null, ptr %16, align 8, !tbaa !30
  %51 = load i32, ptr %12, align 8, !tbaa !32
  %52 = add nsw i32 %51, 1
  store i32 %52, ptr %12, align 8, !tbaa !32
  %53 = add nuw nsw i32 %.04048, 1
  %54 = load i32, ptr %6, align 8, !tbaa !15
  %55 = icmp slt i32 %53, %54
  br i1 %55, label %13, label %._crit_edge51, !llvm.loop !54

._crit_edge51:                                    ; preds = %50, %1
  ret ptr %5
}